; Function Attrs: nounwind uwtable
define dso_local i32 @archive_read_support_format_warc(ptr noundef %0) local_unnamed_addr #0 {
  %2 = tail call i32 @__archive_check_magic(ptr noundef %0, i32 noundef 14594245, i32 noundef 1, ptr noundef nonnull @.str) #16
  %.not = icmp eq i32 %2, -30
  br i1 %.not, label %10, label %3

3:                                                ; preds = %1
  %4 = tail call noalias dereferenceable_or_null(72) ptr @calloc(i64 noundef 1, i64 noundef 72) #17
  %5 = icmp eq ptr %4, null
  br i1 %5, label %6, label %7

6:                                                ; preds = %3
  tail call void (ptr, i32, ptr, ...) @archive_set_error(ptr noundef %0, i32 noundef 12, ptr noundef nonnull @.str.1) #16
  br label %10

7:                                                ; preds = %3
  %8 = tail call i32 @__archive_read_register_format(ptr noundef %0, ptr noundef nonnull %4, ptr noundef nonnull @.str.2, ptr noundef nonnull @_warc_bid, ptr noundef null, ptr noundef nonnull @_warc_rdhdr, ptr noundef nonnull @_warc_read, ptr noundef nonnull @_warc_skip, ptr noundef null, ptr noundef nonnull @_warc_cleanup, ptr noundef null, ptr noundef null) #16
  %.not13 = icmp eq i32 %8, 0
  br i1 %.not13, label %10, label %9

9:                                                ; preds = %7
  tail call void @free(ptr noundef nonnull %4) #16
  br label %10

10:                                               ; preds = %7, %1, %9, %6
  %.1 = phi i32 [ -30, %6 ], [ %8, %9 ], [ -30, %1 ], [ 0, %7 ]
  ret i32 %.1
}